target datalayout = "e-m:e-p270:32:32-p271:32:32-p272:64:64-i64:64-i128:128-f80:128-n8:16:32:64-S128"
target triple = "x86_64-pc-linux-gnu"

@.str.56 = private unnamed_addr constant [42 x i8] c"%0.4e %14.6e %14.6e %14.6e %14.6e %14.6e\0A\00", align 1
@.str.57 = private unnamed_addr constant [25 x i8] c"%24.16e %24.16e %24.16e\0A\00", align 1
@.str.58 = private unnamed_addr constant [33 x i8] c"%24.16e %24.16e %24.16e %24.16e\0A\00", align 1

; Function Attrs: nounwind uwtable
define internal i32 @WriteOutput(double noundef %0, ptr noundef %1, ptr noundef %2, double noundef %3, i32 noundef %4, ptr noundef %5, ptr noundef %6) #0 {
  %8 = alloca i32, align 4
  %9 = alloca double, align 8
  %10 = alloca ptr, align 8
  %11 = alloca ptr, align 8
  %12 = alloca double, align 8
  %13 = alloca i32, align 4
  %14 = alloca ptr, align 8
  %15 = alloca ptr, align 8
  %16 = alloca ptr, align 8
  %17 = alloca ptr, align 8
  %18 = alloca i32, align 4
  store double %0, ptr %9, align 8, !tbaa !11
  store ptr %1, ptr %10, align 8, !tbaa !18
  store ptr %2, ptr %11, align 8, !tbaa !18
  store double %3, ptr %12, align 8, !tbaa !11
  store i32 %4, ptr %13, align 4, !tbaa !4
  store ptr %5, ptr %14, align 8, !tbaa !26
  store ptr %6, ptr %15, align 8, !tbaa !26
  call void @llvm.lifetime.start.p0(i64 8, ptr %16) #8
  %19 = load ptr, ptr %10, align 8, !tbaa !18
  %20 = call ptr @N_VGetArrayPointer(ptr noundef %19)
  store ptr %20, ptr %16, align 8, !tbaa !20
  call void @llvm.lifetime.start.p0(i64 8, ptr %17) #8
  %21 = load ptr, ptr %11, align 8, !tbaa !18
  %22 = call ptr @N_VGetArrayPointer(ptr noundef %21)
  store ptr %22, ptr %17, align 8, !tbaa !20
  %23 = load i32, ptr %13, align 4, !tbaa !4
  %24 = icmp eq i32 %23, 0
  br i1 %24, label %25, label %41

25:                                               ; preds = %7
  %26 = load double, ptr %9, align 8, !tbaa !11
  %27 = load ptr, ptr %16, align 8, !tbaa !20
  %28 = getelementptr inbounds double, ptr %27, i64 0
  %29 = load double, ptr %28, align 8, !tbaa !11
  %30 = load ptr, ptr %16, align 8, !tbaa !20
  %31 = getelementptr inbounds double, ptr %30, i64 1
  %32 = load double, ptr %31, align 8, !tbaa !11
  %33 = load ptr, ptr %17, align 8, !tbaa !20
  %34 = getelementptr inbounds double, ptr %33, i64 0
  %35 = load double, ptr %34, align 8, !tbaa !11
  %36 = load ptr, ptr %17, align 8, !tbaa !20
  %37 = getelementptr inbounds double, ptr %36, i64 1
  %38 = load double, ptr %37, align 8, !tbaa !11
  %39 = load double, ptr %12, align 8, !tbaa !11
  %40 = call i32 (ptr, ...) @printf(ptr noundef @.str.56, double noundef %26, double noundef %29, double noundef %32, double noundef %35, double noundef %38, double noundef %39)
  br label %68

41:                                               ; preds = %7
  %42 = load ptr, ptr %14, align 8, !tbaa !26
  %43 = icmp eq ptr %42, null
  br i1 %43, label %47, label %44

44:                                               ; preds = %41
  %45 = load ptr, ptr %15, align 8, !tbaa !26
  %46 = icmp eq ptr %45, null
  br i1 %46, label %47, label %48

47:                                               ; preds = %44, %41
  store i32 1, ptr %8, align 4
  store i32 1, ptr %18, align 4
  br label %69

48:                                               ; preds = %44
  %49 = load ptr, ptr %14, align 8, !tbaa !26
  %50 = load double, ptr %9, align 8, !tbaa !11
  %51 = load ptr, ptr %16, align 8, !tbaa !20
  %52 = getelementptr inbounds double, ptr %51, i64 0
  %53 = load double, ptr %52, align 8, !tbaa !11
  %54 = load ptr, ptr %16, align 8, !tbaa !20
  %55 = getelementptr inbounds double, ptr %54, i64 1
  %56 = load double, ptr %55, align 8, !tbaa !11
  %57 = call i32 (ptr, ptr, ...) @fprintf(ptr noundef %49, ptr noundef @.str.57, double noundef %50, double noundef %53, double noundef %56) #8
  %58 = load ptr, ptr %15, align 8, !tbaa !26
  %59 = load double, ptr %9, align 8, !tbaa !11
  %60 = load ptr, ptr %17, align 8, !tbaa !20
  %61 = getelementptr inbounds double, ptr %60, i64 0
  %62 = load double, ptr %61, align 8, !tbaa !11
  %63 = load ptr, ptr %17, align 8, !tbaa !20
  %64 = getelementptr inbounds double, ptr %63, i64 1
  %65 = load double, ptr %64, align 8, !tbaa !11
  %66 = load double, ptr %12, align 8, !tbaa !11
  %67 = call i32 (ptr, ptr, ...) @fprintf(ptr noundef %58, ptr noundef @.str.58, double noundef %59, double noundef %62, double noundef %65, double noundef %66) #8
  br label %68

68:                                               ; preds = %48, %25
  store i32 0, ptr %8, align 4
  store i32 1, ptr %18, align 4
  br label %69

69:                                               ; preds = %68, %47
  call void @llvm.lifetime.end.p0(i64 8, ptr %17) #8
  call void @llvm.lifetime.end.p0(i64 8, ptr %16) #8
  %70 = load i32, ptr %8, align 4
  ret i32 %70
}