; Function Attrs: nounwind uwtable
define internal fastcc void @WriteOutput(double noundef %0, ptr noundef %1, ptr noundef %2, double noundef %3, i32 noundef range(i32 0, 2) %4, ptr noundef captures(address_is_null) %5, ptr noundef captures(address_is_null) %6) unnamed_addr #0 {
  %8 = tail call ptr @N_VGetArrayPointer(ptr noundef %1) #13
  %9 = tail call ptr @N_VGetArrayPointer(ptr noundef %2) #13
  %10 = icmp eq i32 %4, 0
  br i1 %10, label %11, label %19

11:                                               ; preds = %7
  %12 = load double, ptr %8, align 8, !tbaa !4
  %13 = getelementptr inbounds nuw i8, ptr %8, i64 8
  %14 = load double, ptr %13, align 8, !tbaa !4
  %15 = load double, ptr %9, align 8, !tbaa !4
  %16 = getelementptr inbounds nuw i8, ptr %9, i64 8
  %17 = load double, ptr %16, align 8, !tbaa !4
  %18 = tail call i32 (ptr, ...) @printf(ptr noundef nonnull dereferenceable(1) @.str.56, double noundef %0, double noundef %12, double noundef %14, double noundef %15, double noundef %17, double noundef %3)
  br label %31

19:                                               ; preds = %7
  %20 = icmp eq ptr %5, null
  %21 = icmp eq ptr %6, null
  %or.cond = or i1 %20, %21
  br i1 %or.cond, label %31, label %22

22:                                               ; preds = %19
  %23 = load double, ptr %8, align 8, !tbaa !4
  %24 = getelementptr inbounds nuw i8, ptr %8, i64 8
  %25 = load double, ptr %24, align 8, !tbaa !4
  %26 = tail call i32 (ptr, ptr, ...) @fprintf(ptr noundef nonnull %5, ptr noundef nonnull @.str.57, double noundef %0, double noundef %23, double noundef %25) #13
  %27 = load double, ptr %9, align 8, !tbaa !4
  %28 = getelementptr inbounds nuw i8, ptr %9, i64 8
  %29 = load double, ptr %28, align 8, !tbaa !4
  %30 = tail call i32 (ptr, ptr, ...) @fprintf(ptr noundef nonnull %6, ptr noundef nonnull @.str.58, double noundef %0, double noundef %27, double noundef %29, double noundef %3) #13
  br label %31

31:                                               ; preds = %11, %22, %19
  ret void
}